; Function Attrs: mustprogress uwtable
define i64 @_ZNK8QuantLib4Bond14settlementDateENS_4DateE(ptr noundef nonnull align 8 dereferenceable(248) %this, i64 %d.coerce) local_unnamed_addr #9 align 2 personality ptr @__gxx_personality_v0 {
entry:
  %ref.tmp.i = alloca %"class.QuantLib::Date", align 8
  %d = alloca %"class.QuantLib::Date", align 8
  %ref.tmp = alloca %"class.QuantLib::Date", align 8
  %ref.tmp9 = alloca %"class.QuantLib::Date", align 8
  store i64 %d.coerce, ptr %d, align 8
  call void @llvm.lifetime.start.p0(i64 8, ptr nonnull %ref.tmp) #29
  call void @_ZN8QuantLib4DateC1Ev(ptr noundef nonnull align 8 dereferenceable(8) %ref.tmp)
  %0 = load i64, ptr %ref.tmp, align 8, !tbaa !74
  %cmp.i = icmp eq i64 %d.coerce, %0
  call void @llvm.lifetime.end.p0(i64 8, ptr nonnull %ref.tmp) #29
  br i1 %cmp.i, label %if.then, label %if.end

if.then:                                          ; preds = %entry
  %1 = load atomic i8, ptr @_ZGVZN8QuantLib9SingletonINS_8SettingsESt17integral_constantIbLb0EEE8instanceEvE8instance acquire, align 8
  %guard.uninitialized.i = icmp eq i8 %1, 0
  br i1 %guard.uninitialized.i, label %init.check.i, label %_ZN8QuantLib9SingletonINS_8SettingsESt17integral_constantIbLb0EEE8instanceEv.exit, !prof !7

init.check.i:                                     ; preds = %if.then
  %2 = call i32 @__cxa_guard_acquire(ptr nonnull @_ZGVZN8QuantLib9SingletonINS_8SettingsESt17integral_constantIbLb0EEE8instanceEvE8instance) #29
  %tobool.not.i = icmp eq i32 %2, 0
  br i1 %tobool.not.i, label %_ZN8QuantLib9SingletonINS_8SettingsESt17integral_constantIbLb0EEE8instanceEv.exit, label %init.i

init.i:                                           ; preds = %init.check.i
  invoke void @_ZN8QuantLib8SettingsC1Ev(ptr noundef nonnull align 8 dereferenceable(28) @_ZZN8QuantLib9SingletonINS_8SettingsESt17integral_constantIbLb0EEE8instanceEvE8instance)
          to label %invoke.cont.i unwind label %lpad.i

invoke.cont.i:                                    ; preds = %init.i
  %3 = call i32 @__cxa_atexit(ptr nonnull @_ZN8QuantLib8SettingsD2Ev, ptr nonnull @_ZZN8QuantLib9SingletonINS_8SettingsESt17integral_constantIbLb0EEE8instanceEvE8instance, ptr nonnull @__dso_handle) #29
  call void @__cxa_guard_release(ptr nonnull @_ZGVZN8QuantLib9SingletonINS_8SettingsESt17integral_constantIbLb0EEE8instanceEvE8instance) #29
  br label %_ZN8QuantLib9SingletonINS_8SettingsESt17integral_constantIbLb0EEE8instanceEv.exit

lpad.i:                                           ; preds = %init.i
  %4 = landingpad { ptr, i32 }
          cleanup
  call void @__cxa_guard_abort(ptr nonnull @_ZGVZN8QuantLib9SingletonINS_8SettingsESt17integral_constantIbLb0EEE8instanceEvE8instance) #29
  resume { ptr, i32 } %4

_ZN8QuantLib9SingletonINS_8SettingsESt17integral_constantIbLb0EEE8instanceEv.exit: ; preds = %if.then, %init.check.i, %invoke.cont.i
  call void @llvm.lifetime.start.p0(i64 8, ptr nonnull %ref.tmp.i) #29
  call void @_ZN8QuantLib4DateC1Ev(ptr noundef nonnull align 8 dereferenceable(8) %ref.tmp.i)
  %5 = load i64, ptr @_ZZN8QuantLib9SingletonINS_8SettingsESt17integral_constantIbLb0EEE8instanceEvE8instance, align 8, !tbaa !72
  %6 = load i64, ptr %ref.tmp.i, align 8, !tbaa !74
  %cmp.i.i = icmp eq i64 %5, %6
  call void @llvm.lifetime.end.p0(i64 8, ptr nonnull %ref.tmp.i) #29
  br i1 %cmp.i.i, label %if.then.i, label %_ZNK8QuantLib8Settings9DateProxycvNS_4DateEEv.exit

if.then.i:                                        ; preds = %_ZN8QuantLib9SingletonINS_8SettingsESt17integral_constantIbLb0EEE8instanceEv.exit
  %call3.i = call i64 @_ZN8QuantLib4Date10todaysDateEv()
  br label %_ZNK8QuantLib8Settings9DateProxycvNS_4DateEEv.exit

_ZNK8QuantLib8Settings9DateProxycvNS_4DateEEv.exit: ; preds = %_ZN8QuantLib9SingletonINS_8SettingsESt17integral_constantIbLb0EEE8instanceEv.exit, %if.then.i
  %retval.sroa.0.0.i = phi i64 [ %call3.i, %if.then.i ], [ %5, %_ZN8QuantLib9SingletonINS_8SettingsESt17integral_constantIbLb0EEE8instanceEv.exit ]
  store i64 %retval.sroa.0.0.i, ptr %d, align 8, !tbaa !72
  br label %if.end

if.end:                                           ; preds = %_ZNK8QuantLib8Settings9DateProxycvNS_4DateEEv.exit, %entry
  %calendar_ = getelementptr inbounds nuw i8, ptr %this, i64 112
  %settlementDays_ = getelementptr inbounds nuw i8, ptr %this, i64 104
  %7 = load i32, ptr %settlementDays_, align 8, !tbaa !35
  %call7 = call i64 @_ZNK8QuantLib8Calendar7advanceERKNS_4DateEiNS_8TimeUnitENS_21BusinessDayConventionEb(ptr noundef nonnull align 8 dereferenceable(16) %calendar_, ptr noundef nonnull align 8 dereferenceable(8) %d, i32 noundef %7, i32 noundef 0, i32 noundef 0, i1 noundef zeroext false)
  %issueDate_ = getelementptr inbounds nuw i8, ptr %this, i64 232
  call void @llvm.lifetime.start.p0(i64 8, ptr nonnull %ref.tmp9) #29
  call void @_ZN8QuantLib4DateC1Ev(ptr noundef nonnull align 8 dereferenceable(8) %ref.tmp9)
  %8 = load i64, ptr %issueDate_, align 8
  %9 = load i64, ptr %ref.tmp9, align 8, !tbaa !74
  %cmp.i2 = icmp eq i64 %8, %9
  call void @llvm.lifetime.end.p0(i64 8, ptr nonnull %ref.tmp9) #29
  %__b.__a.i.val = call i64 @llvm.smax.i64(i64 %call7, i64 %8)
  %retval.sroa.0.0 = select i1 %cmp.i2, i64 %call7, i64 %__b.__a.i.val
  ret i64 %retval.sroa.0.0
}